target datalayout = "e-m:e-p270:32:32-p271:32:32-p272:64:64-i64:64-i128:128-f80:128-n8:16:32:64-S128"
target triple = "x86_64-pc-linux-gnu"

%struct._object = type { %union.anon, ptr }
%union.anon = type { i64 }
%struct.anon.4 = type { i32, i32 }

@PyExc_KeyError = external global ptr, align 8
@PyExc_AttributeError = external global ptr, align 8
@.str.74 = private unnamed_addr constant [38 x i8] c"'%.200s' object has no attribute '%U'\00", align 1

; Function Attrs: alwaysinline nounwind uwtable
define internal i32 @_Py_IsImmortal(ptr noundef %0) #4 {
  %2 = alloca ptr, align 8
  store ptr %0, ptr %2, align 8, !tbaa !96
  %3 = load ptr, ptr %2, align 8, !tbaa !96
  %4 = getelementptr inbounds nuw %struct._object, ptr %3, i32 0, i32 0
  %5 = getelementptr inbounds nuw %struct.anon.4, ptr %4, i32 0, i32 0
  %6 = load i32, ptr %5, align 8, !tbaa !126
  %7 = icmp slt i32 %6, 0
  %8 = zext i1 %7 to i32
  ret i32 %8
}

; Function Attrs: alwaysinline nounwind uwtable
define internal void @Py_DECREF(ptr noundef %0) #4 {
  %2 = alloca ptr, align 8
  store ptr %0, ptr %2, align 8, !tbaa !96
  %3 = load ptr, ptr %2, align 8, !tbaa !96
  %4 = call i32 @_Py_IsImmortal(ptr noundef %3)
  %5 = icmp ne i32 %4, 0
  br i1 %5, label %6, label %7

6:                                                ; preds = %1
  br label %16

7:                                                ; preds = %1
  %8 = load ptr, ptr %2, align 8, !tbaa !96
  %9 = getelementptr inbounds nuw %struct._object, ptr %8, i32 0, i32 0
  %10 = getelementptr inbounds nuw %struct.anon.4, ptr %9, i32 0, i32 0
  %11 = load i32, ptr %10, align 8, !tbaa !126
  %12 = add i32 %11, -1
  store i32 %12, ptr %10, align 8, !tbaa !126
  %13 = icmp eq i32 %12, 0
  br i1 %13, label %14, label %16

14:                                               ; preds = %7
  %15 = load ptr, ptr %2, align 8, !tbaa !96
  call void @_Py_Dealloc(ptr noundef %15)
  br label %16

16:                                               ; preds = %6, %14, %7
  ret void
}

; Function Attrs: nounwind uwtable
define internal i32 @descriptor_set_wrapped_attribute(ptr noundef %0, ptr noundef %1, ptr noundef %2, ptr noundef %3) #0 {
  %5 = alloca i32, align 4
  %6 = alloca ptr, align 8
  %7 = alloca ptr, align 8
  %8 = alloca ptr, align 8
  %9 = alloca ptr, align 8
  %10 = alloca ptr, align 8
  %11 = alloca i32, align 4
  store ptr %0, ptr %6, align 8, !tbaa !96
  store ptr %1, ptr %7, align 8, !tbaa !96
  store ptr %2, ptr %8, align 8, !tbaa !96
  store ptr %3, ptr %9, align 8, !tbaa !161
  call void @llvm.lifetime.start.p0(i64 8, ptr %10) #6
  %12 = load ptr, ptr %6, align 8, !tbaa !96
  %13 = call ptr @PyObject_GenericGetDict(ptr noundef %12, ptr noundef null)
  store ptr %13, ptr %10, align 8, !tbaa !96
  %14 = load ptr, ptr %10, align 8, !tbaa !96
  %15 = icmp eq ptr %14, null
  br i1 %15, label %16, label %17

16:                                               ; preds = %4
  store i32 -1, ptr %5, align 4
  store i32 1, ptr %11, align 4
  br label %45

17:                                               ; preds = %4
  %18 = load ptr, ptr %8, align 8, !tbaa !96
  %19 = icmp eq ptr %18, null
  br i1 %19, label %20, label %39

20:                                               ; preds = %17
  %21 = load ptr, ptr %10, align 8, !tbaa !96
  %22 = load ptr, ptr %7, align 8, !tbaa !96
  %23 = call i32 @PyDict_DelItem(ptr noundef %21, ptr noundef %22)
  %24 = icmp slt i32 %23, 0
  br i1 %24, label %25, label %37

25:                                               ; preds = %20
  %26 = load ptr, ptr @PyExc_KeyError, align 8, !tbaa !96
  %27 = call i32 @PyErr_ExceptionMatches(ptr noundef %26)
  %28 = icmp ne i32 %27, 0
  br i1 %28, label %29, label %35

29:                                               ; preds = %25
  call void @PyErr_Clear()
  %30 = load ptr, ptr @PyExc_AttributeError, align 8, !tbaa !96
  %31 = load ptr, ptr %9, align 8, !tbaa !161
  %32 = load ptr, ptr %7, align 8, !tbaa !96
  %33 = call ptr (ptr, ptr, ...) @PyErr_Format(ptr noundef %30, ptr noundef @.str.74, ptr noundef %31, ptr noundef %32)
  %34 = load ptr, ptr %10, align 8, !tbaa !96
  call void @Py_DECREF(ptr noundef %34)
  store i32 -1, ptr %5, align 4
  store i32 1, ptr %11, align 4
  br label %45

35:                                               ; preds = %25
  %36 = load ptr, ptr %10, align 8, !tbaa !96
  call void @Py_DECREF(ptr noundef %36)
  store i32 -1, ptr %5, align 4
  store i32 1, ptr %11, align 4
  br label %45

37:                                               ; preds = %20
  %38 = load ptr, ptr %10, align 8, !tbaa !96
  call void @Py_DECREF(ptr noundef %38)
  store i32 0, ptr %5, align 4
  store i32 1, ptr %11, align 4
  br label %45

39:                                               ; preds = %17
  %40 = load ptr, ptr %10, align 8, !tbaa !96
  call void @Py_DECREF(ptr noundef %40)
  %41 = load ptr, ptr %10, align 8, !tbaa !96
  %42 = load ptr, ptr %7, align 8, !tbaa !96
  %43 = load ptr, ptr %8, align 8, !tbaa !96
  %44 = call i32 @PyDict_SetItem(ptr noundef %41, ptr noundef %42, ptr noundef %43)
  store i32 %44, ptr %5, align 4
  store i32 1, ptr %11, align 4
  br label %45

45:                                               ; preds = %39, %37, %35, %29, %16
  call void @llvm.lifetime.end.p0(i64 8, ptr %10) #6
  %46 = load i32, ptr %5, align 4
  ret i32 %46
}