; Function Attrs: nounwind uwtable
define internal fastcc i32 @descriptor_set_wrapped_attribute(ptr noundef %0, ptr noundef %1, ptr noundef %2, ptr noundef %3) unnamed_addr #0 {
  %5 = tail call ptr @PyObject_GenericGetDict(ptr noundef %0, ptr noundef null) #8
  %6 = icmp eq ptr %5, null
  br i1 %6, label %Py_DECREF.exit21, label %7

7:                                                ; preds = %4
  %8 = icmp eq ptr %2, null
  br i1 %8, label %9, label %35

9:                                                ; preds = %7
  %10 = tail call i32 @PyDict_DelItem(ptr noundef nonnull %5, ptr noundef %1) #8
  %11 = icmp slt i32 %10, 0
  br i1 %11, label %12, label %29

12:                                               ; preds = %9
  %13 = load ptr, ptr @PyExc_KeyError, align 8, !tbaa !96
  %14 = tail call i32 @PyErr_ExceptionMatches(ptr noundef %13) #8
  %.not = icmp eq i32 %14, 0
  br i1 %.not, label %23, label %15

15:                                               ; preds = %12
  tail call void @PyErr_Clear() #8
  %16 = load ptr, ptr @PyExc_AttributeError, align 8, !tbaa !96
  %17 = tail call ptr (ptr, ptr, ...) @PyErr_Format(ptr noundef %16, ptr noundef nonnull @.str.74, ptr noundef %3, ptr noundef %1) #8
  %18 = load i32, ptr %5, align 8, !tbaa !99
  %.not.i20 = icmp sgt i32 %18, -1
  br i1 %.not.i20, label %19, label %Py_DECREF.exit21

19:                                               ; preds = %15
  %20 = add nsw i32 %18, -1
  store i32 %20, ptr %5, align 8, !tbaa !99
  %21 = icmp eq i32 %20, 0
  br i1 %21, label %22, label %Py_DECREF.exit21

22:                                               ; preds = %19
  tail call void @_Py_Dealloc(ptr noundef nonnull %5) #8
  br label %Py_DECREF.exit21

23:                                               ; preds = %12
  %24 = load i32, ptr %5, align 8, !tbaa !99
  %.not.i18 = icmp sgt i32 %24, -1
  br i1 %.not.i18, label %25, label %Py_DECREF.exit21

25:                                               ; preds = %23
  %26 = add nsw i32 %24, -1
  store i32 %26, ptr %5, align 8, !tbaa !99
  %27 = icmp eq i32 %26, 0
  br i1 %27, label %28, label %Py_DECREF.exit21

28:                                               ; preds = %25
  tail call void @_Py_Dealloc(ptr noundef nonnull %5) #8
  br label %Py_DECREF.exit21

29:                                               ; preds = %9
  %30 = load i32, ptr %5, align 8, !tbaa !99
  %.not.i16 = icmp sgt i32 %30, -1
  br i1 %.not.i16, label %31, label %Py_DECREF.exit21

31:                                               ; preds = %29
  %32 = add nsw i32 %30, -1
  store i32 %32, ptr %5, align 8, !tbaa !99
  %33 = icmp eq i32 %32, 0
  br i1 %33, label %34, label %Py_DECREF.exit21

34:                                               ; preds = %31
  tail call void @_Py_Dealloc(ptr noundef nonnull %5) #8
  br label %Py_DECREF.exit21

35:                                               ; preds = %7
  %36 = load i32, ptr %5, align 8, !tbaa !99
  %.not.i = icmp sgt i32 %36, -1
  br i1 %.not.i, label %37, label %Py_DECREF.exit

37:                                               ; preds = %35
  %38 = add nsw i32 %36, -1
  store i32 %38, ptr %5, align 8, !tbaa !99
  %39 = icmp eq i32 %38, 0
  br i1 %39, label %40, label %Py_DECREF.exit

40:                                               ; preds = %37
  tail call void @_Py_Dealloc(ptr noundef nonnull %5) #8
  br label %Py_DECREF.exit

Py_DECREF.exit:                                   ; preds = %35, %37, %40
  %41 = tail call i32 @PyDict_SetItem(ptr noundef nonnull %5, ptr noundef %1, ptr noundef nonnull %2) #8
  br label %Py_DECREF.exit21

Py_DECREF.exit21:                                 ; preds = %34, %31, %29, %28, %25, %23, %22, %19, %15, %4, %Py_DECREF.exit
  %.0 = phi i32 [ %41, %Py_DECREF.exit ], [ -1, %4 ], [ -1, %15 ], [ -1, %19 ], [ -1, %22 ], [ -1, %23 ], [ -1, %25 ], [ -1, %28 ], [ 0, %29 ], [ 0, %31 ], [ 0, %34 ]
  ret i32 %.0
}